target datalayout = "e-m:e-p270:32:32-p271:32:32-p272:64:64-i64:64-i128:128-f80:128-n8:16:32:64-S128"
target triple = "x86_64-pc-linux-gnu"

; Function Attrs: mustprogress nounwind uwtable
define noundef signext i8 @_ZN6icu_7714GMTOffsetField7isValidENS0_9FieldTypeEi(i32 noundef %0, i32 noundef %1) #0 align 2 {
  %3 = alloca i8, align 1
  %4 = alloca i32, align 4
  %5 = alloca i32, align 4
  store i32 %0, ptr %4, align 4, !tbaa !38
  store i32 %1, ptr %5, align 4, !tbaa !14
  %6 = load i32, ptr %4, align 4, !tbaa !38
  switch i32 %6, label %20 [
    i32 1, label %7
    i32 2, label %16
    i32 4, label %16
  ]

7:                                                ; preds = %2
  %8 = load i32, ptr %5, align 4, !tbaa !14
  %9 = icmp eq i32 %8, 1
  br i1 %9, label %13, label %10

10:                                               ; preds = %7
  %11 = load i32, ptr %5, align 4, !tbaa !14
  %12 = icmp eq i32 %11, 2
  br label %13

13:                                               ; preds = %10, %7
  %14 = phi i1 [ true, %7 ], [ %12, %10 ]
  %15 = zext i1 %14 to i8
  store i8 %15, ptr %3, align 1
  br label %21

16:                                               ; preds = %2, %2
  %17 = load i32, ptr %5, align 4, !tbaa !14
  %18 = icmp eq i32 %17, 2
  %19 = zext i1 %18 to i8
  store i8 %19, ptr %3, align 1
  br label %21

20:                                               ; preds = %2
  call void @abort() #17
  unreachable

21:                                               ; preds = %16, %13
  %22 = load i8, ptr %3, align 1
  ret i8 %22
}