; Function Attrs: mustprogress nofree nounwind uwtable
define noundef signext range(i8 0, 2) i8 @_ZN6icu_7714GMTOffsetField7isValidENS0_9FieldTypeEi(i32 noundef %0, i32 noundef %1) local_unnamed_addr #12 align 2 {
  switch i32 %0, label %8 [
    i32 1, label %3
    i32 2, label %6
    i32 4, label %6
  ]

3:                                                ; preds = %2
  %4 = add i32 %1, -1
  %5 = icmp ult i32 %4, 2
  br label %9

6:                                                ; preds = %2, %2
  %7 = icmp eq i32 %1, 2
  br label %9

8:                                                ; preds = %2
  tail call void @abort() #24
  unreachable

9:                                                ; preds = %6, %3
  %.0.in = phi i1 [ %7, %6 ], [ %5, %3 ]
  %.0 = zext i1 %.0.in to i8
  ret i8 %.0
}